; Function Attrs: mustprogress uwtable
define dso_local void @_ZN21btSimpleDynamicsWorld23synchronizeMotionStatesEv(ptr nocapture noundef nonnull readonly align 8 dereferenceable(308) %this) unnamed_addr #1 align 2 {
entry:
  %m_size.i = getelementptr inbounds i8, ptr %this, i64 12
  %0 = load i32, ptr %m_size.i, align 4
  %cmp9 = icmp sgt i32 %0, 0
  br i1 %cmp9, label %for.body.lr.ph, label %for.end

for.body.lr.ph:                                   ; preds = %entry
  %m_data.i = getelementptr inbounds i8, ptr %this, i64 24
  br label %for.body

for.body:                                         ; preds = %for.body.lr.ph, %for.inc
  %1 = phi i32 [ %0, %for.body.lr.ph ], [ %8, %for.inc ]
  %indvars.iv = phi i64 [ 0, %for.body.lr.ph ], [ %indvars.iv.next, %for.inc ]
  %2 = load ptr, ptr %m_data.i, align 8
  %arrayidx.i = getelementptr inbounds ptr, ptr %2, i64 %indvars.iv
  %3 = load ptr, ptr %arrayidx.i, align 8
  %m_internalType.i.i = getelementptr inbounds i8, ptr %3, i64 272
  %4 = load i32, ptr %m_internalType.i.i, align 8
  %and.i = and i32 %4, 2
  %tobool.not.i = icmp eq i32 %and.i, 0
  %tobool.not8 = icmp eq ptr %3, null
  %tobool.not = or i1 %tobool.not8, %tobool.not.i
  br i1 %tobool.not, label %for.inc, label %land.lhs.true

land.lhs.true:                                    ; preds = %for.body
  %m_optionalMotionState.i = getelementptr inbounds i8, ptr %3, i64 592
  %5 = load ptr, ptr %m_optionalMotionState.i, align 8
  %tobool6.not = icmp eq ptr %5, null
  br i1 %tobool6.not, label %for.inc, label %if.then

if.then:                                          ; preds = %land.lhs.true
  %m_activationState1.i = getelementptr inbounds i8, ptr %3, i64 240
  %6 = load i32, ptr %m_activationState1.i, align 8
  %cmp8.not = icmp eq i32 %6, 2
  br i1 %cmp8.not, label %for.inc, label %if.then9

if.then9:                                         ; preds = %if.then
  %m_worldTransform.i = getelementptr inbounds i8, ptr %3, i64 8
  %vtable = load ptr, ptr %5, align 8
  %vfn = getelementptr inbounds i8, ptr %vtable, i64 24
  %7 = load ptr, ptr %vfn, align 8
  tail call void %7(ptr noundef nonnull align 8 dereferenceable(8) %5, ptr noundef nonnull align 4 dereferenceable(64) %m_worldTransform.i)
  %.pre = load i32, ptr %m_size.i, align 4
  br label %for.inc

for.inc:                                          ; preds = %for.body, %land.lhs.true, %if.then9, %if.then
  %8 = phi i32 [ %1, %for.body ], [ %1, %land.lhs.true ], [ %.pre, %if.then9 ], [ %1, %if.then ]
  %indvars.iv.next = add nuw nsw i64 %indvars.iv, 1
  %9 = sext i32 %8 to i64
  %cmp = icmp slt i64 %indvars.iv.next, %9
  br i1 %cmp, label %for.body, label %for.end, !llvm.loop !11

for.end:                                          ; preds = %for.inc, %entry
  ret void
}